target datalayout = "e-m:e-p270:32:32-p271:32:32-p272:64:64-i64:64-i128:128-f80:128-n8:16:32:64-S128"
target triple = "x86_64-pc-linux-gnu"

%struct.Abc_Ntk_t_ = type { i32, i32, ptr, ptr, ptr, ptr, ptr, ptr, ptr, ptr, ptr, ptr, ptr, [11 x i32], i32, i32, i32, i32, ptr, i32, ptr, ptr, i32, i32, i32, double, i32, %struct.Vec_Int_t_, ptr, ptr, ptr, ptr, ptr, float, i32, ptr, ptr, ptr, ptr, ptr, ptr, ptr, ptr, ptr, ptr, ptr, ptr, ptr, ptr, ptr, ptr, ptr, ptr, ptr, ptr, ptr, ptr }
%struct.Vec_Int_t_ = type { i32, i32, ptr }
%struct.Abc_Obj_t_ = type { ptr, ptr, i32, i32, %struct.Vec_Int_t_, %struct.Vec_Int_t_, %union.anon, %union.anon.0 }
%union.anon = type { ptr }
%union.anon.0 = type { ptr }

; Function Attrs: nounwind uwtable
define void @Abc_ObjRecycle(ptr noundef %0) #0 {
  %2 = alloca ptr, align 8
  %3 = alloca ptr, align 8
  store ptr %0, ptr %2, align 8, !tbaa !26
  call void @llvm.lifetime.start.p0(i64 8, ptr %3) #9
  %4 = load ptr, ptr %2, align 8, !tbaa !26
  %5 = getelementptr inbounds nuw %struct.Abc_Obj_t_, ptr %4, i32 0, i32 0
  %6 = load ptr, ptr %5, align 8, !tbaa !28
  store ptr %6, ptr %3, align 8, !tbaa !3
  %7 = load ptr, ptr %3, align 8, !tbaa !3
  %8 = getelementptr inbounds nuw %struct.Abc_Ntk_t_, ptr %7, i32 0, i32 29
  %9 = load ptr, ptr %8, align 8, !tbaa !31
  %10 = icmp eq ptr %9, null
  br i1 %10, label %11, label %42

11:                                               ; preds = %1
  %12 = load ptr, ptr %2, align 8, !tbaa !26
  %13 = getelementptr inbounds nuw %struct.Abc_Obj_t_, ptr %12, i32 0, i32 5
  %14 = getelementptr inbounds nuw %struct.Vec_Int_t_, ptr %13, i32 0, i32 2
  %15 = load ptr, ptr %14, align 8, !tbaa !32
  %16 = icmp ne ptr %15, null
  br i1 %16, label %17, label %25

17:                                               ; preds = %11
  %18 = load ptr, ptr %2, align 8, !tbaa !26
  %19 = getelementptr inbounds nuw %struct.Abc_Obj_t_, ptr %18, i32 0, i32 5
  %20 = getelementptr inbounds nuw %struct.Vec_Int_t_, ptr %19, i32 0, i32 2
  %21 = load ptr, ptr %20, align 8, !tbaa !32
  call void @free(ptr noundef %21) #9
  %22 = load ptr, ptr %2, align 8, !tbaa !26
  %23 = getelementptr inbounds nuw %struct.Abc_Obj_t_, ptr %22, i32 0, i32 5
  %24 = getelementptr inbounds nuw %struct.Vec_Int_t_, ptr %23, i32 0, i32 2
  store ptr null, ptr %24, align 8, !tbaa !32
  br label %26

25:                                               ; preds = %11
  br label %26

26:                                               ; preds = %25, %17
  %27 = load ptr, ptr %2, align 8, !tbaa !26
  %28 = getelementptr inbounds nuw %struct.Abc_Obj_t_, ptr %27, i32 0, i32 4
  %29 = getelementptr inbounds nuw %struct.Vec_Int_t_, ptr %28, i32 0, i32 2
  %30 = load ptr, ptr %29, align 8, !tbaa !33
  %31 = icmp ne ptr %30, null
  br i1 %31, label %32, label %40

32:                                               ; preds = %26
  %33 = load ptr, ptr %2, align 8, !tbaa !26
  %34 = getelementptr inbounds nuw %struct.Abc_Obj_t_, ptr %33, i32 0, i32 4
  %35 = getelementptr inbounds nuw %struct.Vec_Int_t_, ptr %34, i32 0, i32 2
  %36 = load ptr, ptr %35, align 8, !tbaa !33
  call void @free(ptr noundef %36) #9
  %37 = load ptr, ptr %2, align 8, !tbaa !26
  %38 = getelementptr inbounds nuw %struct.Abc_Obj_t_, ptr %37, i32 0, i32 4
  %39 = getelementptr inbounds nuw %struct.Vec_Int_t_, ptr %38, i32 0, i32 2
  store ptr null, ptr %39, align 8, !tbaa !33
  br label %41

40:                                               ; preds = %26
  br label %41

41:                                               ; preds = %40, %32
  br label %42

42:                                               ; preds = %41, %1
  %43 = load ptr, ptr %2, align 8, !tbaa !26
  call void @llvm.memset.p0.i64(ptr align 8 %43, i8 0, i64 72, i1 false)
  %44 = load ptr, ptr %3, align 8, !tbaa !3
  %45 = getelementptr inbounds nuw %struct.Abc_Ntk_t_, ptr %44, i32 0, i32 28
  %46 = load ptr, ptr %45, align 8, !tbaa !10
  %47 = icmp ne ptr %46, null
  br i1 %47, label %48, label %53

48:                                               ; preds = %42
  %49 = load ptr, ptr %3, align 8, !tbaa !3
  %50 = getelementptr inbounds nuw %struct.Abc_Ntk_t_, ptr %49, i32 0, i32 28
  %51 = load ptr, ptr %50, align 8, !tbaa !10
  %52 = load ptr, ptr %2, align 8, !tbaa !26
  call void @Mem_FixedEntryRecycle(ptr noundef %51, ptr noundef %52)
  br label %60

53:                                               ; preds = %42
  %54 = load ptr, ptr %2, align 8, !tbaa !26
  %55 = icmp ne ptr %54, null
  br i1 %55, label %56, label %58

56:                                               ; preds = %53
  %57 = load ptr, ptr %2, align 8, !tbaa !26
  call void @free(ptr noundef %57) #9
  store ptr null, ptr %2, align 8, !tbaa !26
  br label %59

58:                                               ; preds = %53
  br label %59

59:                                               ; preds = %58, %56
  br label %60

60:                                               ; preds = %59, %48
  call void @llvm.lifetime.end.p0(i64 8, ptr %3) #9
  ret void
}