; Function Attrs: nounwind uwtable
define void @Abc_ObjRecycle(ptr noundef initializes((8, 32), (40, 48), (56, 72)) %0) local_unnamed_addr #0 {
  %2 = load ptr, ptr %0, align 8, !tbaa !24
  %3 = getelementptr inbounds nuw i8, ptr %2, i64 248
  %4 = load ptr, ptr %3, align 8, !tbaa !28
  %5 = icmp eq ptr %4, null
  br i1 %5, label %6, label %14

6:                                                ; preds = %1
  %7 = getelementptr inbounds nuw i8, ptr %0, i64 48
  %8 = load ptr, ptr %7, align 8, !tbaa !29
  %.not = icmp eq ptr %8, null
  br i1 %.not, label %10, label %9

9:                                                ; preds = %6
  tail call void @free(ptr noundef nonnull %8) #10
  store ptr null, ptr %7, align 8, !tbaa !29
  br label %10

10:                                               ; preds = %6, %9
  %11 = getelementptr inbounds nuw i8, ptr %0, i64 32
  %12 = load ptr, ptr %11, align 8, !tbaa !30
  %.not16 = icmp eq ptr %12, null
  br i1 %.not16, label %14, label %13

13:                                               ; preds = %10
  tail call void @free(ptr noundef nonnull %12) #10
  br label %14

14:                                               ; preds = %13, %10, %1
  tail call void @llvm.memset.p0.i64(ptr noundef nonnull align 8 dereferenceable(72) %0, i8 0, i64 72, i1 false)
  %15 = getelementptr inbounds nuw i8, ptr %2, i64 240
  %16 = load ptr, ptr %15, align 8, !tbaa !3
  %.not17 = icmp eq ptr %16, null
  br i1 %.not17, label %18, label %17

17:                                               ; preds = %14
  tail call void @Mem_FixedEntryRecycle(ptr noundef nonnull %16, ptr noundef nonnull %0) #10
  br label %19

18:                                               ; preds = %14
  tail call void @free(ptr noundef nonnull %0) #10
  br label %19

19:                                               ; preds = %18, %17
  ret void
}